target datalayout = "e-m:e-p270:32:32-p271:32:32-p272:64:64-i64:64-i128:128-f80:128-n8:16:32:64-S128"
target triple = "x86_64-pc-linux-gnu"

%struct.ProcSignalHeader = type { %struct.pg_atomic_uint64, [0 x %struct.ProcSignalSlot] }
%struct.pg_atomic_uint64 = type { i64 }
%struct.ProcSignalSlot = type { %struct.pg_atomic_uint32, i8, i32, [14 x i32], i8, %struct.pg_atomic_uint64, %struct.pg_atomic_uint32, %struct.ConditionVariable }
%struct.pg_atomic_uint32 = type { i32 }
%struct.ConditionVariable = type { i8, %struct.proclist_head }
%struct.proclist_head = type { i32, i32 }

@MaxBackends = external global i32, align 4
@ProcSignal = internal global ptr null, align 8
@.str.2 = private unnamed_addr constant [13 x i8] c"procsignal.c\00", align 1
@__func__.SendProcSignal = private unnamed_addr constant [15 x i8] c"SendProcSignal\00", align 1

; Function Attrs: inlinehint nounwind uwtable
define internal i32 @pg_atomic_read_u32_impl(ptr noundef %0) #3 {
  %2 = alloca ptr, align 8
  store ptr %0, ptr %2, align 8
  %3 = load ptr, ptr %2, align 8
  %4 = getelementptr inbounds nuw %struct.pg_atomic_uint32, ptr %3, i32 0, i32 0
  %5 = load volatile i32, ptr %4, align 4
  ret i32 %5
}

; Function Attrs: inlinehint nounwind uwtable
define internal i32 @pg_atomic_read_u32(ptr noundef %0) #3 {
  %2 = alloca ptr, align 8
  store ptr %0, ptr %2, align 8
  %3 = load ptr, ptr %2, align 8
  %4 = call i32 @pg_atomic_read_u32_impl(ptr noundef %3)
  ret i32 %4
}

; Function Attrs: inlinehint nounwind uwtable
define internal i32 @tas(ptr noundef %0) #3 {
  %2 = alloca ptr, align 8
  %3 = alloca i8, align 1
  store ptr %0, ptr %2, align 8
  call void @llvm.lifetime.start.p0(i64 1, ptr %3) #11
  store i8 1, ptr %3, align 1
  %4 = load i8, ptr %3, align 1
  %5 = load ptr, ptr %2, align 8
  %6 = call i8 asm sideeffect "\09lock\09\09\09\0A\09xchgb\09$0,$1\09\0A", "=q,=*m,0,*m,~{memory},~{cc},~{dirflag},~{fpsr},~{flags}"(ptr elementtype(i8) %5, i8 %4, ptr elementtype(i8) %5) #11, !srcloc !13
  store i8 %6, ptr %3, align 1
  %7 = load i8, ptr %3, align 1
  %8 = zext i8 %7 to i32
  call void @llvm.lifetime.end.p0(i64 1, ptr %3) #11
  ret i32 %8
}

; Function Attrs: nounwind uwtable
define dso_local i32 @SendProcSignal(i32 noundef %0, i32 noundef %1, i32 noundef %2) #0 {
  %4 = alloca i32, align 4
  %5 = alloca i32, align 4
  %6 = alloca i32, align 4
  %7 = alloca i32, align 4
  %8 = alloca ptr, align 8
  %9 = alloca i32, align 4
  %10 = alloca i32, align 4
  store i32 %0, ptr %5, align 4
  store i32 %1, ptr %6, align 4
  store i32 %2, ptr %7, align 4
  call void @llvm.lifetime.start.p0(i64 8, ptr %8) #11
  %11 = load i32, ptr %7, align 4
  %12 = icmp ne i32 %11, -1
  br i1 %12, label %13, label %53

13:                                               ; preds = %3
  %14 = load ptr, ptr @ProcSignal, align 8
  %15 = getelementptr inbounds nuw %struct.ProcSignalHeader, ptr %14, i32 0, i32 1
  %16 = load i32, ptr %7, align 4
  %17 = sext i32 %16 to i64
  %18 = getelementptr inbounds [0 x %struct.ProcSignalSlot], ptr %15, i64 0, i64 %17
  store ptr %18, ptr %8, align 8
  %19 = load ptr, ptr %8, align 8
  %20 = getelementptr inbounds nuw %struct.ProcSignalSlot, ptr %19, i32 0, i32 4
  %21 = call i32 @tas(ptr noundef %20)
  %22 = icmp ne i32 %21, 0
  br i1 %22, label %23, label %27

23:                                               ; preds = %13
  %24 = load ptr, ptr %8, align 8
  %25 = getelementptr inbounds nuw %struct.ProcSignalSlot, ptr %24, i32 0, i32 4
  %26 = call i32 @s_lock(ptr noundef %25, ptr noundef @.str.2, i32 noundef 290, ptr noundef @__func__.SendProcSignal)
  br label %28

27:                                               ; preds = %13
  br label %28

28:                                               ; preds = %27, %23
  %29 = load ptr, ptr %8, align 8
  %30 = getelementptr inbounds nuw %struct.ProcSignalSlot, ptr %29, i32 0, i32 0
  %31 = call i32 @pg_atomic_read_u32(ptr noundef %30)
  %32 = load i32, ptr %5, align 4
  %33 = icmp eq i32 %31, %32
  br i1 %33, label %34, label %47

34:                                               ; preds = %28
  %35 = load ptr, ptr %8, align 8
  %36 = getelementptr inbounds nuw %struct.ProcSignalSlot, ptr %35, i32 0, i32 3
  %37 = load i32, ptr %6, align 4
  %38 = zext i32 %37 to i64
  %39 = getelementptr inbounds nuw [14 x i32], ptr %36, i64 0, i64 %38
  store volatile i32 1, ptr %39, align 4
  br label %40

40:                                               ; preds = %34
  call void asm sideeffect "", "~{memory},~{dirflag},~{fpsr},~{flags}"() #11, !srcloc !16
  %41 = load ptr, ptr %8, align 8
  %42 = getelementptr inbounds nuw %struct.ProcSignalSlot, ptr %41, i32 0, i32 4
  store volatile i8 0, ptr %42, align 4
  br label %43

43:                                               ; preds = %40
  br label %44

44:                                               ; preds = %43
  %45 = load i32, ptr %5, align 4
  %46 = call i32 @kill(i32 noundef %45, i32 noundef 10) #11
  store i32 %46, ptr %4, align 4
  store i32 1, ptr %9, align 4
  br label %116

47:                                               ; preds = %28
  br label %48

48:                                               ; preds = %47
  call void asm sideeffect "", "~{memory},~{dirflag},~{fpsr},~{flags}"() #11, !srcloc !17
  %49 = load ptr, ptr %8, align 8
  %50 = getelementptr inbounds nuw %struct.ProcSignalSlot, ptr %49, i32 0, i32 4
  store volatile i8 0, ptr %50, align 4
  br label %51

51:                                               ; preds = %48
  br label %52

52:                                               ; preds = %51
  br label %114

53:                                               ; preds = %3
  call void @llvm.lifetime.start.p0(i64 4, ptr %10) #11
  %54 = load i32, ptr @MaxBackends, align 4
  %55 = add i32 %54, 6
  %56 = sub i32 %55, 1
  store i32 %56, ptr %10, align 4
  br label %57

57:                                               ; preds = %107, %53
  %58 = load i32, ptr %10, align 4
  %59 = icmp sge i32 %58, 0
  br i1 %59, label %60, label %110

60:                                               ; preds = %57
  %61 = load ptr, ptr @ProcSignal, align 8
  %62 = getelementptr inbounds nuw %struct.ProcSignalHeader, ptr %61, i32 0, i32 1
  %63 = load i32, ptr %10, align 4
  %64 = sext i32 %63 to i64
  %65 = getelementptr inbounds [0 x %struct.ProcSignalSlot], ptr %62, i64 0, i64 %64
  store ptr %65, ptr %8, align 8
  %66 = load ptr, ptr %8, align 8
  %67 = getelementptr inbounds nuw %struct.ProcSignalSlot, ptr %66, i32 0, i32 0
  %68 = call i32 @pg_atomic_read_u32(ptr noundef %67)
  %69 = load i32, ptr %5, align 4
  %70 = icmp eq i32 %68, %69
  br i1 %70, label %71, label %106

71:                                               ; preds = %60
  %72 = load ptr, ptr %8, align 8
  %73 = getelementptr inbounds nuw %struct.ProcSignalSlot, ptr %72, i32 0, i32 4
  %74 = call i32 @tas(ptr noundef %73)
  %75 = icmp ne i32 %74, 0
  br i1 %75, label %76, label %80

76:                                               ; preds = %71
  %77 = load ptr, ptr %8, align 8
  %78 = getelementptr inbounds nuw %struct.ProcSignalSlot, ptr %77, i32 0, i32 4
  %79 = call i32 @s_lock(ptr noundef %78, ptr noundef @.str.2, i32 noundef 318, ptr noundef @__func__.SendProcSignal)
  br label %81

80:                                               ; preds = %71
  br label %81

81:                                               ; preds = %80, %76
  %82 = load ptr, ptr %8, align 8
  %83 = getelementptr inbounds nuw %struct.ProcSignalSlot, ptr %82, i32 0, i32 0
  %84 = call i32 @pg_atomic_read_u32(ptr noundef %83)
  %85 = load i32, ptr %5, align 4
  %86 = icmp eq i32 %84, %85
  br i1 %86, label %87, label %100

87:                                               ; preds = %81
  %88 = load ptr, ptr %8, align 8
  %89 = getelementptr inbounds nuw %struct.ProcSignalSlot, ptr %88, i32 0, i32 3
  %90 = load i32, ptr %6, align 4
  %91 = zext i32 %90 to i64
  %92 = getelementptr inbounds nuw [14 x i32], ptr %89, i64 0, i64 %91
  store volatile i32 1, ptr %92, align 4
  br label %93

93:                                               ; preds = %87
  call void asm sideeffect "", "~{memory},~{dirflag},~{fpsr},~{flags}"() #11, !srcloc !18
  %94 = load ptr, ptr %8, align 8
  %95 = getelementptr inbounds nuw %struct.ProcSignalSlot, ptr %94, i32 0, i32 4
  store volatile i8 0, ptr %95, align 4
  br label %96

96:                                               ; preds = %93
  br label %97

97:                                               ; preds = %96
  %98 = load i32, ptr %5, align 4
  %99 = call i32 @kill(i32 noundef %98, i32 noundef 10) #11
  store i32 %99, ptr %4, align 4
  store i32 1, ptr %9, align 4
  br label %111

100:                                              ; preds = %81
  br label %101

101:                                              ; preds = %100
  call void asm sideeffect "", "~{memory},~{dirflag},~{fpsr},~{flags}"() #11, !srcloc !19
  %102 = load ptr, ptr %8, align 8
  %103 = getelementptr inbounds nuw %struct.ProcSignalSlot, ptr %102, i32 0, i32 4
  store volatile i8 0, ptr %103, align 4
  br label %104

104:                                              ; preds = %101
  br label %105

105:                                              ; preds = %104
  br label %106

106:                                              ; preds = %105, %60
  br label %107

107:                                              ; preds = %106
  %108 = load i32, ptr %10, align 4
  %109 = add i32 %108, -1
  store i32 %109, ptr %10, align 4
  br label %57, !llvm.loop !20

110:                                              ; preds = %57
  store i32 0, ptr %9, align 4
  br label %111

111:                                              ; preds = %110, %97
  call void @llvm.lifetime.end.p0(i64 4, ptr %10) #11
  %112 = load i32, ptr %9, align 4
  switch i32 %112, label %116 [
    i32 0, label %113
  ]

113:                                              ; preds = %111
  br label %114

114:                                              ; preds = %113, %52
  %115 = call ptr @__errno_location() #13
  store i32 3, ptr %115, align 4
  store i32 -1, ptr %4, align 4
  store i32 1, ptr %9, align 4
  br label %116

116:                                              ; preds = %114, %111, %44
  call void @llvm.lifetime.end.p0(i64 8, ptr %8) #11
  %117 = load i32, ptr %4, align 4
  ret i32 %117
}