; Function Attrs: nounwind uwtable
define dso_local i32 @SendProcSignal(i32 noundef %0, i32 noundef %1, i32 noundef %2) local_unnamed_addr #0 {
  %.not = icmp eq i32 %2, -1
  br i1 %.not, label %22, label %4

4:                                                ; preds = %3
  %5 = load ptr, ptr @ProcSignal, align 8
  %6 = getelementptr inbounds nuw i8, ptr %5, i64 8
  %7 = sext i32 %2 to i64
  %8 = getelementptr inbounds [0 x %struct.ProcSignalSlot], ptr %6, i64 0, i64 %7
  %9 = getelementptr inbounds nuw i8, ptr %8, i64 68
  %10 = tail call i8 asm sideeffect "\09lock\09\09\09\0A\09xchgb\09$0,$1\09\0A", "=q,=*m,0,*m,~{memory},~{cc},~{dirflag},~{fpsr},~{flags}"(ptr nonnull elementtype(i8) %9, i8 1, ptr nonnull elementtype(i8) %9) #11, !srcloc !9
  %.not32 = icmp eq i8 %10, 0
  br i1 %.not32, label %13, label %11

11:                                               ; preds = %4
  %12 = tail call i32 @s_lock(ptr noundef nonnull %9, ptr noundef nonnull @.str.2, i32 noundef 290, ptr noundef nonnull @__func__.SendProcSignal) #11
  br label %13

13:                                               ; preds = %4, %11
  %14 = load volatile i32, ptr %8, align 4
  %15 = icmp eq i32 %14, %0
  br i1 %15, label %16, label %21

16:                                               ; preds = %13
  %17 = getelementptr inbounds nuw i8, ptr %8, i64 12
  %18 = zext i32 %1 to i64
  %19 = getelementptr inbounds nuw [14 x i32], ptr %17, i64 0, i64 %18
  store volatile i32 1, ptr %19, align 4
  tail call void asm sideeffect "", "~{memory},~{dirflag},~{fpsr},~{flags}"() #11, !srcloc !14
  store volatile i8 0, ptr %9, align 4
  %20 = tail call i32 @kill(i32 noundef %0, i32 noundef 10) #11
  br label %50

21:                                               ; preds = %13
  tail call void asm sideeffect "", "~{memory},~{dirflag},~{fpsr},~{flags}"() #11, !srcloc !15
  store volatile i8 0, ptr %9, align 4
  br label %.thread

22:                                               ; preds = %3
  %23 = load i32, ptr @MaxBackends, align 4
  %24 = add i32 %23, 5
  %25 = icmp slt i32 %24, 0
  br i1 %25, label %.thread, label %.lr.ph.preheader

.lr.ph.preheader:                                 ; preds = %22
  %26 = zext nneg i32 %24 to i64
  %.pre39 = load ptr, ptr @ProcSignal, align 8
  br label %.lr.ph

.lr.ph:                                           ; preds = %.lr.ph.preheader, %41
  %27 = phi ptr [ %.pre39, %.lr.ph.preheader ], [ %42, %41 ]
  %indvars.iv = phi i64 [ %26, %.lr.ph.preheader ], [ %indvars.iv.next, %41 ]
  %28 = getelementptr inbounds nuw i8, ptr %27, i64 8
  %29 = getelementptr inbounds nuw [0 x %struct.ProcSignalSlot], ptr %28, i64 0, i64 %indvars.iv
  %30 = load volatile i32, ptr %29, align 4
  %31 = icmp eq i32 %30, %0
  br i1 %31, label %32, label %41

32:                                               ; preds = %.lr.ph
  %33 = getelementptr inbounds nuw i8, ptr %29, i64 68
  %34 = tail call i8 asm sideeffect "\09lock\09\09\09\0A\09xchgb\09$0,$1\09\0A", "=q,=*m,0,*m,~{memory},~{cc},~{dirflag},~{fpsr},~{flags}"(ptr nonnull elementtype(i8) %33, i8 1, ptr nonnull elementtype(i8) %33) #11, !srcloc !9
  %.not31 = icmp eq i8 %34, 0
  br i1 %.not31, label %37, label %35

35:                                               ; preds = %32
  %36 = tail call i32 @s_lock(ptr noundef nonnull %33, ptr noundef nonnull @.str.2, i32 noundef 318, ptr noundef nonnull @__func__.SendProcSignal) #11
  br label %37

37:                                               ; preds = %32, %35
  %38 = load volatile i32, ptr %29, align 4
  %39 = icmp eq i32 %38, %0
  br i1 %39, label %44, label %40

40:                                               ; preds = %37
  tail call void asm sideeffect "", "~{memory},~{dirflag},~{fpsr},~{flags}"() #11, !srcloc !16
  store volatile i8 0, ptr %33, align 4
  %.pre = load ptr, ptr @ProcSignal, align 8
  br label %41

41:                                               ; preds = %.lr.ph, %40
  %42 = phi ptr [ %27, %.lr.ph ], [ %.pre, %40 ]
  %indvars.iv.next = add nsw i64 %indvars.iv, -1
  %43 = icmp slt i64 %indvars.iv, 1
  br i1 %43, label %.thread, label %.lr.ph, !llvm.loop !17

44:                                               ; preds = %37
  %45 = getelementptr inbounds nuw i8, ptr %29, i64 12
  %46 = zext i32 %1 to i64
  %47 = getelementptr inbounds nuw [14 x i32], ptr %45, i64 0, i64 %46
  store volatile i32 1, ptr %47, align 4
  tail call void asm sideeffect "", "~{memory},~{dirflag},~{fpsr},~{flags}"() #11, !srcloc !18
  store volatile i8 0, ptr %33, align 4
  %48 = tail call i32 @kill(i32 noundef %0, i32 noundef 10) #11
  br label %50

.thread:                                          ; preds = %41, %22, %21
  %49 = tail call ptr @__errno_location() #13
  store i32 3, ptr %49, align 4
  br label %50

50:                                               ; preds = %44, %.thread, %16
  %.027 = phi i32 [ %20, %16 ], [ -1, %.thread ], [ %48, %44 ]
  ret i32 %.027
}